; Function Attrs: nounwind uwtable
define i32 @Gia_ManSifArea(ptr noundef %0, ptr noundef readonly captures(none) %1, i32 noundef %2) local_unnamed_addr #0 {
  tail call void @Gia_ManIncrementTravId(ptr noundef %0) #24
  %4 = getelementptr i8, ptr %0, i64 32
  %5 = getelementptr inbounds nuw i8, ptr %0, i64 72
  %6 = load ptr, ptr %5, align 8, !tbaa !52
  %7 = getelementptr i8, ptr %6, i64 4
  %.val15 = load i32, ptr %7, align 4, !tbaa !42
  %8 = icmp sgt i32 %.val15, 0
  br i1 %8, label %.lr.ph, label %.critedge

.lr.ph:                                           ; preds = %3, %10
  %indvars.iv = phi i64 [ %indvars.iv.next, %10 ], [ 0, %3 ]
  %9 = phi ptr [ %22, %10 ], [ %6, %3 ]
  %.017 = phi i32 [ %21, %10 ], [ 0, %3 ]
  %.val13 = load ptr, ptr %4, align 8, !tbaa !28
  %.not = icmp eq ptr %.val13, null
  br i1 %.not, label %.critedge, label %10

10:                                               ; preds = %.lr.ph
  %11 = getelementptr i8, ptr %9, i64 8
  %.val14.val = load ptr, ptr %11, align 8, !tbaa !39
  %12 = getelementptr inbounds nuw i32, ptr %.val14.val, i64 %indvars.iv
  %13 = load i32, ptr %12, align 4, !tbaa !29
  %14 = sext i32 %13 to i64
  %15 = getelementptr inbounds %struct.Gia_Obj_t_, ptr %.val13, i64 %14
  %16 = load i64, ptr %15, align 4
  %17 = and i64 %16, 536870911
  %18 = sub nsw i64 0, %17
  %19 = getelementptr inbounds %struct.Gia_Obj_t_, ptr %15, i64 %18
  %20 = tail call i32 @Gia_ManSifArea_rec(ptr noundef nonnull %0, ptr noundef nonnull %19, ptr noundef %1, i32 noundef %2)
  %21 = add nsw i32 %20, %.017
  %indvars.iv.next = add nuw nsw i64 %indvars.iv, 1
  %22 = load ptr, ptr %5, align 8, !tbaa !52
  %23 = getelementptr i8, ptr %22, i64 4
  %.val = load i32, ptr %23, align 4, !tbaa !42
  %24 = sext i32 %.val to i64
  %25 = icmp slt i64 %indvars.iv.next, %24
  br i1 %25, label %.lr.ph, label %.critedge, !llvm.loop !95

.critedge:                                        ; preds = %.lr.ph, %10, %3
  %.0.lcssa = phi i32 [ 0, %3 ], [ %21, %10 ], [ %.017, %.lr.ph ]
  ret i32 %.0.lcssa
}